target datalayout = "e-m:e-p270:32:32-p271:32:32-p272:64:64-i64:64-i128:128-f80:128-n8:16:32:64-S128"
target triple = "x86_64-pc-linux-gnu"

%struct.H5O_layout_chunk_t = type { i32, i8, i32, [33 x i32], i32, i32, i64, i64, [33 x i64], [33 x i64], [33 x i64], [33 x i64], %union.anon.0 }
%union.anon.0 = type { %struct.H5O_layout_chunk_earray_t }
%struct.H5O_layout_chunk_earray_t = type { %struct.anon.1, i32, [33 x i32], [33 x i64], [33 x i64] }
%struct.anon.1 = type { i8, i8, i8, i8, i8 }
%struct.H5B_shared_t = type { ptr, i32, i64, i64, i64, i64, i64, ptr, ptr, ptr }
%struct.H5D_btree_key_t = type { [33 x i64], i32, i32 }

@H5D_init_g = external global i8, align 1
@H5_libterm_g = external global i8, align 1
@.str = private unnamed_addr constant [102 x i8] c"generated/home/dtcxzyw/WorkSpace/Projects/compilers/llvm-opt-benchmark/bench/hdf5/hdf5/src/H5Dbtree.c\00", align 1
@H5E_DATASET_g = external global i64, align 8
@__func__.H5D__btree_decode_key = private unnamed_addr constant [22 x i8] c"H5D__btree_decode_key\00", align 1
@H5E_BADVALUE_g = external global i64, align 8
@.str.27 = private unnamed_addr constant [25 x i8] c"bad number of dimensions\00", align 1
@.str.28 = private unnamed_addr constant [34 x i8] c"chunk size must be > 0, dim = %u \00", align 1
@.str.29 = private unnamed_addr constant [22 x i8] c"bad coordinate offset\00", align 1

; Function Attrs: nounwind uwtable
define internal i32 @H5D__btree_decode_key(ptr noundef %0, ptr noundef %1, ptr noundef %2) #0 {
  %4 = alloca i32, align 4
  %5 = alloca ptr, align 8
  %6 = alloca ptr, align 8
  %7 = alloca ptr, align 8
  %8 = alloca ptr, align 8
  %9 = alloca ptr, align 8
  %10 = alloca i64, align 8
  %11 = alloca i32, align 4
  %12 = alloca i8, align 1
  %13 = alloca i32, align 4
  %14 = alloca i32, align 4
  %15 = alloca i64, align 8
  store ptr %0, ptr %5, align 8, !tbaa !70
  store ptr %1, ptr %6, align 8, !tbaa !97
  store ptr %2, ptr %7, align 8, !tbaa !41
  call void @llvm.lifetime.start.p0(i64 8, ptr %8) #8
  call void @llvm.lifetime.start.p0(i64 8, ptr %9) #8
  %16 = load ptr, ptr %7, align 8, !tbaa !41
  store ptr %16, ptr %9, align 8, !tbaa !78
  call void @llvm.lifetime.start.p0(i64 8, ptr %10) #8
  call void @llvm.lifetime.start.p0(i64 4, ptr %11) #8
  store i32 0, ptr %11, align 4, !tbaa !12
  call void @llvm.lifetime.start.p0(i64 1, ptr %12) #8
  store i8 0, ptr %12, align 1, !tbaa !14
  %17 = load i8, ptr @H5D_init_g, align 1, !tbaa !14, !range !16, !noundef !17
  %18 = trunc i8 %17 to i1
  br i1 %18, label %23, label %19

19:                                               ; preds = %3
  %20 = load i8, ptr @H5_libterm_g, align 1, !tbaa !14, !range !16, !noundef !17
  %21 = trunc i8 %20 to i1
  %22 = xor i1 %21, true
  br label %23

23:                                               ; preds = %19, %3
  %24 = phi i1 [ true, %3 ], [ %22, %19 ]
  %25 = xor i1 %24, true
  %26 = xor i1 %25, true
  %27 = zext i1 %26 to i32
  %28 = sext i32 %27 to i64
  %29 = call i64 @llvm.expect.i64(i64 %28, i64 1)
  %30 = icmp ne i64 %29, 0
  br i1 %30, label %31, label %256

31:                                               ; preds = %23
  %32 = load ptr, ptr %5, align 8, !tbaa !70
  %33 = getelementptr inbounds nuw %struct.H5B_shared_t, ptr %32, i32 0, i32 9
  %34 = load ptr, ptr %33, align 8, !tbaa !72
  store ptr %34, ptr %8, align 8, !tbaa !69
  %35 = load ptr, ptr %8, align 8, !tbaa !69
  %36 = getelementptr inbounds nuw %struct.H5O_layout_chunk_t, ptr %35, i32 0, i32 2
  %37 = load i32, ptr %36, align 8, !tbaa !60
  %38 = icmp ugt i32 %37, 33
  br i1 %38, label %39, label %58

39:                                               ; preds = %31
  br label %40

40:                                               ; preds = %39
  br label %41

41:                                               ; preds = %40
  br label %42

42:                                               ; preds = %41
  %43 = load i64, ptr @H5E_DATASET_g, align 8, !tbaa !10
  %44 = load i64, ptr @H5E_BADVALUE_g, align 8, !tbaa !10
  %45 = call i32 (ptr, ptr, i32, i64, i64, ptr, ...) @H5E_printf_stack(ptr noundef @.str, ptr noundef @__func__.H5D__btree_decode_key, i32 noundef 636, i64 noundef %43, i64 noundef %44, ptr noundef @.str.27)
  br label %46

46:                                               ; preds = %42
  br label %47

47:                                               ; preds = %46
  store i8 1, ptr %12, align 1, !tbaa !14
  %48 = load i8, ptr %12, align 1, !tbaa !14, !range !16, !noundef !17
  %49 = trunc i8 %48 to i1
  %50 = zext i1 %49 to i8
  store i8 %50, ptr %12, align 1, !tbaa !14
  br label %51

51:                                               ; preds = %47
  br label %52

52:                                               ; preds = %51
  br label %53

53:                                               ; preds = %52
  store i32 -1, ptr %11, align 4, !tbaa !12
  br label %255

54:                                               ; No predecessors!
  br label %55

55:                                               ; preds = %54
  br label %56

56:                                               ; preds = %55
  br label %57

57:                                               ; preds = %56
  br label %58

58:                                               ; preds = %57, %31
  br label %59

59:                                               ; preds = %58
  %60 = load ptr, ptr %6, align 8, !tbaa !97
  %61 = load i8, ptr %60, align 1, !tbaa !24
  %62 = zext i8 %61 to i32
  %63 = and i32 %62, 255
  %64 = load ptr, ptr %9, align 8, !tbaa !78
  %65 = getelementptr inbounds nuw %struct.H5D_btree_key_t, ptr %64, i32 0, i32 1
  store i32 %63, ptr %65, align 8, !tbaa !86
  %66 = load ptr, ptr %6, align 8, !tbaa !97
  %67 = getelementptr inbounds nuw i8, ptr %66, i32 1
  store ptr %67, ptr %6, align 8, !tbaa !97
  %68 = load ptr, ptr %6, align 8, !tbaa !97
  %69 = load i8, ptr %68, align 1, !tbaa !24
  %70 = zext i8 %69 to i32
  %71 = and i32 %70, 255
  %72 = shl i32 %71, 8
  %73 = load ptr, ptr %9, align 8, !tbaa !78
  %74 = getelementptr inbounds nuw %struct.H5D_btree_key_t, ptr %73, i32 0, i32 1
  %75 = load i32, ptr %74, align 8, !tbaa !86
  %76 = or i32 %75, %72
  store i32 %76, ptr %74, align 8, !tbaa !86
  %77 = load ptr, ptr %6, align 8, !tbaa !97
  %78 = getelementptr inbounds nuw i8, ptr %77, i32 1
  store ptr %78, ptr %6, align 8, !tbaa !97
  %79 = load ptr, ptr %6, align 8, !tbaa !97
  %80 = load i8, ptr %79, align 1, !tbaa !24
  %81 = zext i8 %80 to i32
  %82 = and i32 %81, 255
  %83 = shl i32 %82, 16
  %84 = load ptr, ptr %9, align 8, !tbaa !78
  %85 = getelementptr inbounds nuw %struct.H5D_btree_key_t, ptr %84, i32 0, i32 1
  %86 = load i32, ptr %85, align 8, !tbaa !86
  %87 = or i32 %86, %83
  store i32 %87, ptr %85, align 8, !tbaa !86
  %88 = load ptr, ptr %6, align 8, !tbaa !97
  %89 = getelementptr inbounds nuw i8, ptr %88, i32 1
  store ptr %89, ptr %6, align 8, !tbaa !97
  %90 = load ptr, ptr %6, align 8, !tbaa !97
  %91 = load i8, ptr %90, align 1, !tbaa !24
  %92 = zext i8 %91 to i32
  %93 = and i32 %92, 255
  %94 = shl i32 %93, 24
  %95 = load ptr, ptr %9, align 8, !tbaa !78
  %96 = getelementptr inbounds nuw %struct.H5D_btree_key_t, ptr %95, i32 0, i32 1
  %97 = load i32, ptr %96, align 8, !tbaa !86
  %98 = or i32 %97, %94
  store i32 %98, ptr %96, align 8, !tbaa !86
  %99 = load ptr, ptr %6, align 8, !tbaa !97
  %100 = getelementptr inbounds nuw i8, ptr %99, i32 1
  store ptr %100, ptr %6, align 8, !tbaa !97
  br label %101

101:                                              ; preds = %59
  br label %102

102:                                              ; preds = %101
  br label %103

103:                                              ; preds = %102
  %104 = load ptr, ptr %6, align 8, !tbaa !97
  %105 = load i8, ptr %104, align 1, !tbaa !24
  %106 = zext i8 %105 to i32
  %107 = and i32 %106, 255
  %108 = load ptr, ptr %9, align 8, !tbaa !78
  %109 = getelementptr inbounds nuw %struct.H5D_btree_key_t, ptr %108, i32 0, i32 2
  store i32 %107, ptr %109, align 4, !tbaa !89
  %110 = load ptr, ptr %6, align 8, !tbaa !97
  %111 = getelementptr inbounds nuw i8, ptr %110, i32 1
  store ptr %111, ptr %6, align 8, !tbaa !97
  %112 = load ptr, ptr %6, align 8, !tbaa !97
  %113 = load i8, ptr %112, align 1, !tbaa !24
  %114 = zext i8 %113 to i32
  %115 = and i32 %114, 255
  %116 = shl i32 %115, 8
  %117 = load ptr, ptr %9, align 8, !tbaa !78
  %118 = getelementptr inbounds nuw %struct.H5D_btree_key_t, ptr %117, i32 0, i32 2
  %119 = load i32, ptr %118, align 4, !tbaa !89
  %120 = or i32 %119, %116
  store i32 %120, ptr %118, align 4, !tbaa !89
  %121 = load ptr, ptr %6, align 8, !tbaa !97
  %122 = getelementptr inbounds nuw i8, ptr %121, i32 1
  store ptr %122, ptr %6, align 8, !tbaa !97
  %123 = load ptr, ptr %6, align 8, !tbaa !97
  %124 = load i8, ptr %123, align 1, !tbaa !24
  %125 = zext i8 %124 to i32
  %126 = and i32 %125, 255
  %127 = shl i32 %126, 16
  %128 = load ptr, ptr %9, align 8, !tbaa !78
  %129 = getelementptr inbounds nuw %struct.H5D_btree_key_t, ptr %128, i32 0, i32 2
  %130 = load i32, ptr %129, align 4, !tbaa !89
  %131 = or i32 %130, %127
  store i32 %131, ptr %129, align 4, !tbaa !89
  %132 = load ptr, ptr %6, align 8, !tbaa !97
  %133 = getelementptr inbounds nuw i8, ptr %132, i32 1
  store ptr %133, ptr %6, align 8, !tbaa !97
  %134 = load ptr, ptr %6, align 8, !tbaa !97
  %135 = load i8, ptr %134, align 1, !tbaa !24
  %136 = zext i8 %135 to i32
  %137 = and i32 %136, 255
  %138 = shl i32 %137, 24
  %139 = load ptr, ptr %9, align 8, !tbaa !78
  %140 = getelementptr inbounds nuw %struct.H5D_btree_key_t, ptr %139, i32 0, i32 2
  %141 = load i32, ptr %140, align 4, !tbaa !89
  %142 = or i32 %141, %138
  store i32 %142, ptr %140, align 4, !tbaa !89
  %143 = load ptr, ptr %6, align 8, !tbaa !97
  %144 = getelementptr inbounds nuw i8, ptr %143, i32 1
  store ptr %144, ptr %6, align 8, !tbaa !97
  br label %145

145:                                              ; preds = %103
  br label %146

146:                                              ; preds = %145
  call void @llvm.lifetime.start.p0(i64 4, ptr %13) #8
  store i32 0, ptr %13, align 4, !tbaa !12
  br label %147

147:                                              ; preds = %249, %146
  %148 = load i32, ptr %13, align 4, !tbaa !12
  %149 = load ptr, ptr %8, align 8, !tbaa !69
  %150 = getelementptr inbounds nuw %struct.H5O_layout_chunk_t, ptr %149, i32 0, i32 2
  %151 = load i32, ptr %150, align 8, !tbaa !60
  %152 = icmp ult i32 %148, %151
  br i1 %152, label %154, label %153

153:                                              ; preds = %147
  store i32 15, ptr %14, align 4
  br label %252

154:                                              ; preds = %147
  %155 = load ptr, ptr %8, align 8, !tbaa !69
  %156 = getelementptr inbounds nuw %struct.H5O_layout_chunk_t, ptr %155, i32 0, i32 3
  %157 = load i32, ptr %13, align 4, !tbaa !12
  %158 = zext i32 %157 to i64
  %159 = getelementptr inbounds nuw [33 x i32], ptr %156, i64 0, i64 %158
  %160 = load i32, ptr %159, align 4, !tbaa !12
  %161 = icmp eq i32 %160, 0
  br i1 %161, label %162, label %182

162:                                              ; preds = %154
  br label %163

163:                                              ; preds = %162
  br label %164

164:                                              ; preds = %163
  br label %165

165:                                              ; preds = %164
  %166 = load i64, ptr @H5E_DATASET_g, align 8, !tbaa !10
  %167 = load i64, ptr @H5E_BADVALUE_g, align 8, !tbaa !10
  %168 = load i32, ptr %13, align 4, !tbaa !12
  %169 = call i32 (ptr, ptr, i32, i64, i64, ptr, ...) @H5E_printf_stack(ptr noundef @.str, ptr noundef @__func__.H5D__btree_decode_key, i32 noundef 642, i64 noundef %166, i64 noundef %167, ptr noundef @.str.28, i32 noundef %168)
  br label %170

170:                                              ; preds = %165
  br label %171

171:                                              ; preds = %170
  store i8 1, ptr %12, align 1, !tbaa !14
  %172 = load i8, ptr %12, align 1, !tbaa !14, !range !16, !noundef !17
  %173 = trunc i8 %172 to i1
  %174 = zext i1 %173 to i8
  store i8 %174, ptr %12, align 1, !tbaa !14
  br label %175

175:                                              ; preds = %171
  br label %176

176:                                              ; preds = %175
  br label %177

177:                                              ; preds = %176
  store i32 -1, ptr %11, align 4, !tbaa !12
  store i32 10, ptr %14, align 4
  br label %252

178:                                              ; No predecessors!
  br label %179

179:                                              ; preds = %178
  br label %180

180:                                              ; preds = %179
  br label %181

181:                                              ; preds = %180
  br label %182

182:                                              ; preds = %181, %154
  br label %183

183:                                              ; preds = %182
  call void @llvm.lifetime.start.p0(i64 8, ptr %15) #8
  store i64 0, ptr %10, align 8, !tbaa !10
  %184 = load ptr, ptr %6, align 8, !tbaa !97
  %185 = getelementptr inbounds i8, ptr %184, i64 8
  store ptr %185, ptr %6, align 8, !tbaa !97
  store i64 0, ptr %15, align 8, !tbaa !10
  br label %186

186:                                              ; preds = %197, %183
  %187 = load i64, ptr %15, align 8, !tbaa !10
  %188 = icmp ult i64 %187, 8
  br i1 %188, label %189, label %200

189:                                              ; preds = %186
  %190 = load i64, ptr %10, align 8, !tbaa !10
  %191 = shl i64 %190, 8
  %192 = load ptr, ptr %6, align 8, !tbaa !97
  %193 = getelementptr inbounds i8, ptr %192, i32 -1
  store ptr %193, ptr %6, align 8, !tbaa !97
  %194 = load i8, ptr %193, align 1, !tbaa !24
  %195 = zext i8 %194 to i64
  %196 = or i64 %191, %195
  store i64 %196, ptr %10, align 8, !tbaa !10
  br label %197

197:                                              ; preds = %189
  %198 = load i64, ptr %15, align 8, !tbaa !10
  %199 = add i64 %198, 1
  store i64 %199, ptr %15, align 8, !tbaa !10
  br label %186, !llvm.loop !98

200:                                              ; preds = %186
  %201 = load ptr, ptr %6, align 8, !tbaa !97
  %202 = getelementptr inbounds i8, ptr %201, i64 8
  store ptr %202, ptr %6, align 8, !tbaa !97
  call void @llvm.lifetime.end.p0(i64 8, ptr %15) #8
  br label %203

203:                                              ; preds = %200
  br label %204

204:                                              ; preds = %203
  %205 = load i64, ptr %10, align 8, !tbaa !10
  %206 = load ptr, ptr %8, align 8, !tbaa !69
  %207 = getelementptr inbounds nuw %struct.H5O_layout_chunk_t, ptr %206, i32 0, i32 3
  %208 = load i32, ptr %13, align 4, !tbaa !12
  %209 = zext i32 %208 to i64
  %210 = getelementptr inbounds nuw [33 x i32], ptr %207, i64 0, i64 %209
  %211 = load i32, ptr %210, align 4, !tbaa !12
  %212 = zext i32 %211 to i64
  %213 = urem i64 %205, %212
  %214 = icmp ne i64 0, %213
  br i1 %214, label %215, label %234

215:                                              ; preds = %204
  br label %216

216:                                              ; preds = %215
  br label %217

217:                                              ; preds = %216
  br label %218

218:                                              ; preds = %217
  %219 = load i64, ptr @H5E_DATASET_g, align 8, !tbaa !10
  %220 = load i64, ptr @H5E_BADVALUE_g, align 8, !tbaa !10
  %221 = call i32 (ptr, ptr, i32, i64, i64, ptr, ...) @H5E_printf_stack(ptr noundef @.str, ptr noundef @__func__.H5D__btree_decode_key, i32 noundef 647, i64 noundef %219, i64 noundef %220, ptr noundef @.str.29)
  br label %222

222:                                              ; preds = %218
  br label %223

223:                                              ; preds = %222
  store i8 1, ptr %12, align 1, !tbaa !14
  %224 = load i8, ptr %12, align 1, !tbaa !14, !range !16, !noundef !17
  %225 = trunc i8 %224 to i1
  %226 = zext i1 %225 to i8
  store i8 %226, ptr %12, align 1, !tbaa !14
  br label %227

227:                                              ; preds = %223
  br label %228

228:                                              ; preds = %227
  br label %229

229:                                              ; preds = %228
  store i32 -1, ptr %11, align 4, !tbaa !12
  store i32 10, ptr %14, align 4
  br label %252

230:                                              ; No predecessors!
  br label %231

231:                                              ; preds = %230
  br label %232

232:                                              ; preds = %231
  br label %233

233:                                              ; preds = %232
  br label %234

234:                                              ; preds = %233, %204
  %235 = load i64, ptr %10, align 8, !tbaa !10
  %236 = load ptr, ptr %8, align 8, !tbaa !69
  %237 = getelementptr inbounds nuw %struct.H5O_layout_chunk_t, ptr %236, i32 0, i32 3
  %238 = load i32, ptr %13, align 4, !tbaa !12
  %239 = zext i32 %238 to i64
  %240 = getelementptr inbounds nuw [33 x i32], ptr %237, i64 0, i64 %239
  %241 = load i32, ptr %240, align 4, !tbaa !12
  %242 = zext i32 %241 to i64
  %243 = udiv i64 %235, %242
  %244 = load ptr, ptr %9, align 8, !tbaa !78
  %245 = getelementptr inbounds nuw %struct.H5D_btree_key_t, ptr %244, i32 0, i32 0
  %246 = load i32, ptr %13, align 4, !tbaa !12
  %247 = zext i32 %246 to i64
  %248 = getelementptr inbounds nuw [33 x i64], ptr %245, i64 0, i64 %247
  store i64 %243, ptr %248, align 8, !tbaa !10
  br label %249

249:                                              ; preds = %234
  %250 = load i32, ptr %13, align 4, !tbaa !12
  %251 = add i32 %250, 1
  store i32 %251, ptr %13, align 4, !tbaa !12
  br label %147, !llvm.loop !99

252:                                              ; preds = %229, %177, %153
  call void @llvm.lifetime.end.p0(i64 4, ptr %13) #8
  %253 = load i32, ptr %14, align 4
  switch i32 %253, label %258 [
    i32 15, label %254
    i32 10, label %255
  ]

254:                                              ; preds = %252
  br label %255

255:                                              ; preds = %254, %252, %53
  br label %256

256:                                              ; preds = %255, %23
  %257 = load i32, ptr %11, align 4, !tbaa !12
  store i32 %257, ptr %4, align 4
  store i32 1, ptr %14, align 4
  br label %258

258:                                              ; preds = %256, %252
  call void @llvm.lifetime.end.p0(i64 1, ptr %12) #8
  call void @llvm.lifetime.end.p0(i64 4, ptr %11) #8
  call void @llvm.lifetime.end.p0(i64 8, ptr %10) #8
  call void @llvm.lifetime.end.p0(i64 8, ptr %9) #8
  call void @llvm.lifetime.end.p0(i64 8, ptr %8) #8
  %259 = load i32, ptr %4, align 4
  ret i32 %259
}