; Function Attrs: nounwind uwtable
define internal range(i32 -1, 1) i32 @H5D__btree_decode_key(ptr noundef readonly captures(none) %0, ptr noundef readonly captures(none) %1, ptr noundef writeonly captures(none) %2) #0 {
  %4 = load i8, ptr @H5D_init_g, align 1, !tbaa !3, !range !7, !noundef !8
  %5 = trunc nuw i8 %4 to i1
  %6 = load i8, ptr @H5_libterm_g, align 1, !range !7
  %7 = trunc nuw i8 %6 to i1
  %8 = xor i1 %7, true
  %9 = select i1 %5, i1 true, i1 %8
  br i1 %9, label %10, label %.loopexit, !prof !9

10:                                               ; preds = %3
  %11 = getelementptr inbounds nuw i8, ptr %0, i64 72
  %12 = load ptr, ptr %11, align 8, !tbaa !47
  %13 = getelementptr inbounds nuw i8, ptr %12, i64 8
  %14 = load i32, ptr %13, align 8, !tbaa !40
  %15 = icmp ugt i32 %14, 33
  br i1 %15, label %16, label %20

16:                                               ; preds = %10
  %17 = load i64, ptr @H5E_DATASET_g, align 8, !tbaa !20
  %18 = load i64, ptr @H5E_BADVALUE_g, align 8, !tbaa !20
  %19 = tail call i32 (ptr, ptr, i32, i64, i64, ptr, ...) @H5E_printf_stack(ptr noundef nonnull @.str, ptr noundef nonnull @__func__.H5D__btree_decode_key, i32 noundef 636, i64 noundef %17, i64 noundef %18, ptr noundef nonnull @.str.27) #15
  br label %.loopexit

20:                                               ; preds = %10
  %21 = load i8, ptr %1, align 1, !tbaa !17
  %22 = zext i8 %21 to i32
  %23 = getelementptr inbounds nuw i8, ptr %2, i64 264
  store i32 %22, ptr %23, align 8, !tbaa !57
  %24 = getelementptr inbounds nuw i8, ptr %1, i64 1
  %25 = load i8, ptr %24, align 1, !tbaa !17
  %26 = zext i8 %25 to i32
  %27 = shl nuw nsw i32 %26, 8
  %28 = or disjoint i32 %27, %22
  store i32 %28, ptr %23, align 8, !tbaa !57
  %29 = getelementptr inbounds nuw i8, ptr %1, i64 2
  %30 = load i8, ptr %29, align 1, !tbaa !17
  %31 = zext i8 %30 to i32
  %32 = shl nuw nsw i32 %31, 16
  %33 = or disjoint i32 %32, %28
  store i32 %33, ptr %23, align 8, !tbaa !57
  %34 = getelementptr inbounds nuw i8, ptr %1, i64 3
  %35 = load i8, ptr %34, align 1, !tbaa !17
  %36 = zext i8 %35 to i32
  %37 = shl nuw i32 %36, 24
  %38 = or disjoint i32 %37, %33
  store i32 %38, ptr %23, align 8, !tbaa !57
  %39 = getelementptr inbounds nuw i8, ptr %1, i64 4
  %40 = load i8, ptr %39, align 1, !tbaa !17
  %41 = zext i8 %40 to i32
  %42 = getelementptr inbounds nuw i8, ptr %2, i64 268
  store i32 %41, ptr %42, align 4, !tbaa !60
  %43 = getelementptr inbounds nuw i8, ptr %1, i64 5
  %44 = load i8, ptr %43, align 1, !tbaa !17
  %45 = zext i8 %44 to i32
  %46 = shl nuw nsw i32 %45, 8
  %47 = or disjoint i32 %46, %41
  store i32 %47, ptr %42, align 4, !tbaa !60
  %48 = getelementptr inbounds nuw i8, ptr %1, i64 6
  %49 = load i8, ptr %48, align 1, !tbaa !17
  %50 = zext i8 %49 to i32
  %51 = shl nuw nsw i32 %50, 16
  %52 = or disjoint i32 %51, %47
  store i32 %52, ptr %42, align 4, !tbaa !60
  %53 = getelementptr inbounds nuw i8, ptr %1, i64 7
  %54 = load i8, ptr %53, align 1, !tbaa !17
  %55 = zext i8 %54 to i32
  %56 = shl nuw i32 %55, 24
  %57 = or disjoint i32 %56, %52
  store i32 %57, ptr %42, align 4, !tbaa !60
  %.not66 = icmp eq i32 %14, 0
  br i1 %.not66, label %.loopexit, label %.lr.ph

.lr.ph:                                           ; preds = %20
  %58 = getelementptr inbounds nuw i8, ptr %12, i64 12
  br label %59

59:                                               ; preds = %.lr.ph, %85
  %.05365 = phi i32 [ 0, %.lr.ph ], [ %87, %85 ]
  %.pn64 = phi ptr [ %1, %.lr.ph ], [ %scevgep, %85 ]
  %60 = zext i32 %.05365 to i64
  %61 = getelementptr inbounds nuw [33 x i32], ptr %58, i64 0, i64 %60
  %62 = load i32, ptr %61, align 4, !tbaa !36
  %63 = icmp eq i32 %62, 0
  br i1 %63, label %64, label %68

64:                                               ; preds = %59
  %65 = load i64, ptr @H5E_DATASET_g, align 8, !tbaa !20
  %66 = load i64, ptr @H5E_BADVALUE_g, align 8, !tbaa !20
  %67 = tail call i32 (ptr, ptr, i32, i64, i64, ptr, ...) @H5E_printf_stack(ptr noundef nonnull @.str, ptr noundef nonnull @__func__.H5D__btree_decode_key, i32 noundef 642, i64 noundef %65, i64 noundef %66, ptr noundef nonnull @.str.28, i32 noundef %.05365) #15
  br label %.loopexit

68:                                               ; preds = %59
  %69 = getelementptr inbounds nuw i8, ptr %.pn64, i64 16
  br label %70

70:                                               ; preds = %68, %70
  %.063 = phi i64 [ 0, %68 ], [ %76, %70 ]
  %.05562 = phi i64 [ 0, %68 ], [ %75, %70 ]
  %.15861 = phi ptr [ %69, %68 ], [ %72, %70 ]
  %71 = shl i64 %.05562, 8
  %72 = getelementptr inbounds i8, ptr %.15861, i64 -1
  %73 = load i8, ptr %72, align 1, !tbaa !17
  %74 = zext i8 %73 to i64
  %75 = or disjoint i64 %71, %74
  %76 = add nuw nsw i64 %.063, 1
  %exitcond.not = icmp eq i64 %76, 8
  br i1 %exitcond.not, label %77, label %70, !llvm.loop !73

77:                                               ; preds = %70
  %78 = zext i32 %62 to i64
  %79 = urem i64 %75, %78
  %80 = udiv i64 %75, %78
  %.not = icmp eq i64 %79, 0
  br i1 %.not, label %85, label %81

81:                                               ; preds = %77
  %82 = load i64, ptr @H5E_DATASET_g, align 8, !tbaa !20
  %83 = load i64, ptr @H5E_BADVALUE_g, align 8, !tbaa !20
  %84 = tail call i32 (ptr, ptr, i32, i64, i64, ptr, ...) @H5E_printf_stack(ptr noundef nonnull @.str, ptr noundef nonnull @__func__.H5D__btree_decode_key, i32 noundef 647, i64 noundef %82, i64 noundef %83, ptr noundef nonnull @.str.29) #15
  br label %.loopexit

85:                                               ; preds = %77
  %scevgep = getelementptr i8, ptr %.pn64, i64 8
  %86 = getelementptr inbounds nuw [33 x i64], ptr %2, i64 0, i64 %60
  store i64 %80, ptr %86, align 8, !tbaa !20
  %87 = add nuw i32 %.05365, 1
  %exitcond70.not = icmp eq i32 %87, %14
  br i1 %exitcond70.not, label %.loopexit, label %59, !llvm.loop !74

.loopexit:                                        ; preds = %85, %20, %64, %81, %3, %16
  %.056 = phi i32 [ -1, %16 ], [ 0, %3 ], [ -1, %64 ], [ -1, %81 ], [ 0, %20 ], [ 0, %85 ]
  ret i32 %.056
}